target datalayout = "e-m:e-p270:32:32-p271:32:32-p272:64:64-i64:64-i128:128-f80:128-n8:16:32:64-S128"
target triple = "x86_64-pc-linux-gnu"

%"class.datalog::dl_decl_plugin" = type { %class.decl_plugin.base, %class.symbol, %class.symbol, %class.symbol, %class.symbol, %class.symbol, %class.symbol, %class.symbol, %class.symbol, %class.symbol, %class.symbol, %class.symbol, %class.symbol, %class.symbol, %class.symbol, %class.symbol, %class.symbol, %class.symbol }
%class.decl_plugin.base = type <{ ptr, ptr, i32 }>
%class.symbol = type { ptr }
%class.decl_plugin = type <{ ptr, ptr, i32, [4 x i8] }>
%class.sort_size = type { i32, i64 }
%class.sort_info = type { %class.decl_info.base, %class.sort_size }
%class.decl_info.base = type <{ i32, i32, %class.vector.39, i8 }>
%class.vector.39 = type { ptr }
%class.decl_info = type <{ i32, i32, %class.vector.39, i8, [7 x i8] }>

; Function Attrs: mustprogress uwtable
define linkonce_odr hidden noundef ptr @_ZN11ast_manager21mk_uninterpreted_sortERK6symbol(ptr noundef nonnull align 8 dereferenceable(976) %0, ptr noundef nonnull align 8 dereferenceable(8) %1) #4 comdat align 2 {
  %3 = alloca ptr, align 8
  %4 = alloca ptr, align 8
  store ptr %0, ptr %3, align 8, !tbaa !54
  store ptr %1, ptr %4, align 8, !tbaa !55
  %5 = load ptr, ptr %3, align 8
  %6 = load ptr, ptr %4, align 8, !tbaa !55
  %7 = call noundef ptr @_ZN11ast_manager21mk_uninterpreted_sortERK6symboljPK9parameter(ptr noundef nonnull align 8 dereferenceable(976) %5, ptr noundef nonnull align 8 dereferenceable(8) %6, i32 noundef 0, ptr noundef null)
  ret ptr %7
}

; Function Attrs: mustprogress nounwind uwtable
define linkonce_odr hidden noundef i32 @_ZNK9decl_info13get_family_idEv(ptr noundef nonnull align 8 dereferenceable(17) %0) #9 comdat align 2 {
  %2 = alloca ptr, align 8
  store ptr %0, ptr %2, align 8, !tbaa !142
  %3 = load ptr, ptr %2, align 8
  %4 = getelementptr inbounds nuw %class.decl_info, ptr %3, i32 0, i32 0
  %5 = load i32, ptr %4, align 8, !tbaa !268
  ret i32 %5
}

; Function Attrs: mustprogress nounwind uwtable
define linkonce_odr hidden void @_ZN9sort_sizeC2ENS_6kind_tEm(ptr noundef nonnull align 8 dereferenceable(16) %0, i32 noundef %1, i64 noundef %2) unnamed_addr #9 comdat align 2 {
  %4 = alloca ptr, align 8
  %5 = alloca i32, align 4
  %6 = alloca i64, align 8
  store ptr %0, ptr %4, align 8, !tbaa !34
  store i32 %1, ptr %5, align 4, !tbaa !39
  store i64 %2, ptr %6, align 8, !tbaa !41
  %7 = load ptr, ptr %4, align 8
  %8 = getelementptr inbounds nuw %class.sort_size, ptr %7, i32 0, i32 0
  %9 = load i32, ptr %5, align 4, !tbaa !39
  store i32 %9, ptr %8, align 8, !tbaa !47
  %10 = getelementptr inbounds nuw %class.sort_size, ptr %7, i32 0, i32 1
  %11 = load i64, ptr %6, align 8, !tbaa !41
  store i64 %11, ptr %10, align 8, !tbaa !49
  ret void
}

; Function Attrs: mustprogress uwtable
define linkonce_odr hidden noundef ptr @_ZN11ast_manager7mk_sortERK6symbolRK9sort_info(ptr noundef nonnull align 8 dereferenceable(976) %0, ptr noundef nonnull align 8 dereferenceable(8) %1, ptr noundef nonnull align 8 dereferenceable(40) %2) #4 comdat align 2 {
  %4 = alloca ptr, align 8
  %5 = alloca ptr, align 8
  %6 = alloca ptr, align 8
  %7 = alloca ptr, align 8
  store ptr %0, ptr %5, align 8, !tbaa !54
  store ptr %1, ptr %6, align 8, !tbaa !55
  store ptr %2, ptr %7, align 8, !tbaa !52
  %8 = load ptr, ptr %5, align 8
  %9 = load ptr, ptr %7, align 8, !tbaa !52
  %10 = call noundef i32 @_ZNK9decl_info13get_family_idEv(ptr noundef nonnull align 8 dereferenceable(17) %9)
  %11 = icmp eq i32 %10, -1
  br i1 %11, label %12, label %15

12:                                               ; preds = %3
  %13 = load ptr, ptr %6, align 8, !tbaa !55
  %14 = call noundef ptr @_ZN11ast_manager21mk_uninterpreted_sortERK6symbol(ptr noundef nonnull align 8 dereferenceable(976) %8, ptr noundef nonnull align 8 dereferenceable(8) %13)
  store ptr %14, ptr %4, align 8
  br label %19

15:                                               ; preds = %3
  %16 = load ptr, ptr %6, align 8, !tbaa !55
  %17 = load ptr, ptr %7, align 8, !tbaa !52
  %18 = call noundef ptr @_ZN11ast_manager7mk_sortERK6symbolP9sort_info(ptr noundef nonnull align 8 dereferenceable(976) %8, ptr noundef nonnull align 8 dereferenceable(8) %16, ptr noundef %17)
  store ptr %18, ptr %4, align 8
  br label %19

19:                                               ; preds = %15, %12
  %20 = load ptr, ptr %4, align 8
  ret ptr %20
}

; Function Attrs: mustprogress uwtable
define linkonce_odr hidden void @_ZN9sort_infoC2EiiRK9sort_sizejPK9parameterb(ptr noundef nonnull align 8 dereferenceable(40) %0, i32 noundef %1, i32 noundef %2, ptr noundef nonnull align 8 dereferenceable(16) %3, i32 noundef %4, ptr noundef %5, i1 noundef zeroext %6) unnamed_addr #4 comdat align 2 {
  %8 = alloca ptr, align 8
  %9 = alloca i32, align 4
  %10 = alloca i32, align 4
  %11 = alloca ptr, align 8
  %12 = alloca i32, align 4
  %13 = alloca ptr, align 8
  %14 = alloca i8, align 1
  store ptr %0, ptr %8, align 8, !tbaa !52
  store i32 %1, ptr %9, align 4, !tbaa !19
  store i32 %2, ptr %10, align 4, !tbaa !19
  store ptr %3, ptr %11, align 8, !tbaa !34
  store i32 %4, ptr %12, align 4, !tbaa !19
  store ptr %5, ptr %13, align 8, !tbaa !26
  %15 = zext i1 %6 to i8
  store i8 %15, ptr %14, align 1, !tbaa !28
  %16 = load ptr, ptr %8, align 8
  %17 = load i32, ptr %9, align 4, !tbaa !19
  %18 = load i32, ptr %10, align 4, !tbaa !19
  %19 = load i32, ptr %12, align 4, !tbaa !19
  %20 = load ptr, ptr %13, align 8, !tbaa !26
  %21 = load i8, ptr %14, align 1, !tbaa !28, !range !30, !noundef !31
  %22 = trunc i8 %21 to i1
  call void @_ZN9decl_infoC2EiijPK9parameterb(ptr noundef nonnull align 8 dereferenceable(17) %16, i32 noundef %17, i32 noundef %18, i32 noundef %19, ptr noundef %20, i1 noundef zeroext %22)
  %23 = getelementptr inbounds nuw %class.sort_info, ptr %16, i32 0, i32 1
  %24 = load ptr, ptr %11, align 8, !tbaa !34
  call void @llvm.memcpy.p0.p0.i64(ptr align 8 %23, ptr align 8 %24, i64 16, i1 false), !tbaa.struct !38
  ret void
}

; Function Attrs: mustprogress uwtable
define linkonce_odr hidden { i32, i64 } @_ZN9sort_size11mk_infiniteEv() #4 comdat align 2 {
  %1 = alloca %class.sort_size, align 8
  call void @_ZN9sort_sizeC2ENS_6kind_tEm(ptr noundef nonnull align 8 dereferenceable(16) %1, i32 noundef 2, i64 noundef 0)
  %2 = load { i32, i64 }, ptr %1, align 8
  ret { i32, i64 } %2
}

; Function Attrs: mustprogress uwtable
define hidden noundef ptr @_ZN7datalog14dl_decl_plugin12mk_rule_sortEv(ptr noundef nonnull align 8 dereferenceable(160) %0) #4 align 2 personality ptr @__gxx_personality_v0 {
  %2 = alloca ptr, align 8
  %3 = alloca %class.sort_size, align 8
  %4 = alloca %class.sort_info, align 8
  %5 = alloca ptr, align 8
  %6 = alloca i32, align 4
  store ptr %0, ptr %2, align 8, !tbaa !3
  %7 = load ptr, ptr %2, align 8
  call void @llvm.lifetime.start.p0(i64 16, ptr %3) #3
  %8 = call { i32, i64 } @_ZN9sort_size11mk_infiniteEv()
  %9 = getelementptr inbounds nuw { i32, i64 }, ptr %3, i32 0, i32 0
  %10 = extractvalue { i32, i64 } %8, 0
  store i32 %10, ptr %9, align 8
  %11 = getelementptr inbounds nuw { i32, i64 }, ptr %3, i32 0, i32 1
  %12 = extractvalue { i32, i64 } %8, 1
  store i64 %12, ptr %11, align 8
  call void @llvm.lifetime.start.p0(i64 40, ptr %4) #3
  %13 = getelementptr inbounds nuw %class.decl_plugin, ptr %7, i32 0, i32 2
  %14 = load i32, ptr %13, align 8, !tbaa !16
  call void @_ZN9sort_infoC2EiiRK9sort_sizejPK9parameterb(ptr noundef nonnull align 8 dereferenceable(40) %4, i32 noundef %14, i32 noundef 2, ptr noundef nonnull align 8 dereferenceable(16) %3, i32 noundef 0, ptr noundef null, i1 noundef zeroext false)
  %15 = getelementptr inbounds nuw %class.decl_plugin, ptr %7, i32 0, i32 1
  %16 = load ptr, ptr %15, align 8, !tbaa !12
  %17 = getelementptr inbounds nuw %"class.datalog::dl_decl_plugin", ptr %7, i32 0, i32 17
  %18 = invoke noundef ptr @_ZN11ast_manager7mk_sortERK6symbolRK9sort_info(ptr noundef nonnull align 8 dereferenceable(976) %16, ptr noundef nonnull align 8 dereferenceable(8) %17, ptr noundef nonnull align 8 dereferenceable(40) %4)
          to label %19 unwind label %20

19:                                               ; preds = %1
  call void @_ZN9decl_infoD2Ev(ptr noundef nonnull align 8 dereferenceable(40) %4) #3
  call void @llvm.lifetime.end.p0(i64 40, ptr %4) #3
  call void @llvm.lifetime.end.p0(i64 16, ptr %3) #3
  ret ptr %18

20:                                               ; preds = %1
  %21 = landingpad { ptr, i32 }
          cleanup
  %22 = extractvalue { ptr, i32 } %21, 0
  store ptr %22, ptr %5, align 8
  %23 = extractvalue { ptr, i32 } %21, 1
  store i32 %23, ptr %6, align 4
  call void @_ZN9decl_infoD2Ev(ptr noundef nonnull align 8 dereferenceable(40) %4) #3
  call void @llvm.lifetime.end.p0(i64 40, ptr %4) #3
  call void @llvm.lifetime.end.p0(i64 16, ptr %3) #3
  br label %24

24:                                               ; preds = %20
  %25 = load ptr, ptr %5, align 8
  %26 = load i32, ptr %6, align 4
  %27 = insertvalue { ptr, i32 } poison, ptr %25, 0
  %28 = insertvalue { ptr, i32 } %27, i32 %26, 1
  resume { ptr, i32 } %28
}