; Function Attrs: mustprogress uwtable
define hidden noundef ptr @_ZN7datalog14dl_decl_plugin12mk_rule_sortEv(ptr noundef nonnull align 8 dereferenceable(160) %0) local_unnamed_addr #3 align 2 personality ptr @__gxx_personality_v0 {
  %2 = alloca %class.sort_info, align 8
  call void @llvm.lifetime.start.p0(i64 40, ptr nonnull %2) #22
  %3 = getelementptr inbounds nuw i8, ptr %0, i64 16
  %4 = load i32, ptr %3, align 8, !tbaa !10
  call void @_ZN9decl_infoC2EiijPK9parameterb(ptr noundef nonnull align 8 dereferenceable(40) %2, i32 noundef %4, i32 noundef 2, i32 noundef 0, ptr noundef null, i1 noundef zeroext false)
  %5 = getelementptr inbounds nuw i8, ptr %2, i64 24
  store i32 2, ptr %5, align 8, !tbaa !41
  %.sroa.53.0..sroa_idx = getelementptr inbounds nuw i8, ptr %2, i64 32
  store i64 0, ptr %.sroa.53.0..sroa_idx, align 8, !tbaa !42
  %6 = getelementptr inbounds nuw i8, ptr %0, i64 8
  %7 = load ptr, ptr %6, align 8, !tbaa !3
  %8 = getelementptr inbounds nuw i8, ptr %0, i64 152
  %9 = load i32, ptr %2, align 8, !tbaa !43
  %10 = icmp eq i32 %9, -1
  br i1 %10, label %11, label %13

11:                                               ; preds = %1
  %12 = invoke noundef ptr @_ZN11ast_manager21mk_uninterpreted_sortERK6symboljPK9parameter(ptr noundef nonnull align 8 dereferenceable(976) %7, ptr noundef nonnull align 8 dereferenceable(8) %8, i32 noundef 0, ptr noundef null)
          to label %_ZN11ast_manager7mk_sortERK6symbolRK9sort_info.exit unwind label %26

13:                                               ; preds = %1
  %14 = invoke noundef ptr @_ZN11ast_manager7mk_sortERK6symbolP9sort_info(ptr noundef nonnull align 8 dereferenceable(976) %7, ptr noundef nonnull align 8 dereferenceable(8) %8, ptr noundef nonnull align 8 dereferenceable(40) %2)
          to label %_ZN11ast_manager7mk_sortERK6symbolRK9sort_info.exit unwind label %26

_ZN11ast_manager7mk_sortERK6symbolRK9sort_info.exit: ; preds = %11, %13
  %.0.i = phi ptr [ %12, %11 ], [ %14, %13 ]
  %15 = getelementptr inbounds nuw i8, ptr %2, i64 8
  %16 = load ptr, ptr %15, align 8, !tbaa !48
  %.not.i.i.i = icmp eq ptr %16, null
  br i1 %.not.i.i.i, label %_ZN9decl_infoD2Ev.exit, label %_ZNK6vectorI9parameterLb1EjE4sizeEv.exit.i.i.i.i

_ZNK6vectorI9parameterLb1EjE4sizeEv.exit.i.i.i.i: ; preds = %_ZN11ast_manager7mk_sortERK6symbolRK9sort_info.exit
  %17 = getelementptr inbounds i8, ptr %16, i64 -4
  %18 = load i32, ptr %17, align 4, !tbaa !49
  %.not5.i.i.i.i.i.i.i = icmp eq i32 %18, 0
  br i1 %.not5.i.i.i.i.i.i.i, label %_ZN6vectorI9parameterLb1EjE16destroy_elementsEv.exit.i.i.i, label %.lr.ph.i.i.i.i.i.i.i

.lr.ph.i.i.i.i.i.i.i:                             ; preds = %_ZNK6vectorI9parameterLb1EjE4sizeEv.exit.i.i.i.i, %.lr.ph.i.i.i.i.i.i.i
  %.07.i.i.i.i.i.i.i = phi i32 [ %20, %.lr.ph.i.i.i.i.i.i.i ], [ %18, %_ZNK6vectorI9parameterLb1EjE4sizeEv.exit.i.i.i.i ]
  %.046.i.i.i.i.i.i.i = phi ptr [ %19, %.lr.ph.i.i.i.i.i.i.i ], [ %16, %_ZNK6vectorI9parameterLb1EjE4sizeEv.exit.i.i.i.i ]
  call void @_ZN9parameterD1Ev(ptr noundef nonnull align 8 dereferenceable(16) %.046.i.i.i.i.i.i.i) #22
  %19 = getelementptr inbounds nuw i8, ptr %.046.i.i.i.i.i.i.i, i64 16
  %20 = add i32 %.07.i.i.i.i.i.i.i, -1
  %.not.i.i.i.i.i.i.i = icmp eq i32 %20, 0
  br i1 %.not.i.i.i.i.i.i.i, label %_ZN6vectorI9parameterLb1EjE16destroy_elementsEv.exit.loopexit.i.i.i, label %.lr.ph.i.i.i.i.i.i.i, !llvm.loop !50

_ZN6vectorI9parameterLb1EjE16destroy_elementsEv.exit.loopexit.i.i.i: ; preds = %.lr.ph.i.i.i.i.i.i.i
  %.pre.i.i.i = load ptr, ptr %15, align 8, !tbaa !48
  br label %_ZN6vectorI9parameterLb1EjE16destroy_elementsEv.exit.i.i.i

_ZN6vectorI9parameterLb1EjE16destroy_elementsEv.exit.i.i.i: ; preds = %_ZN6vectorI9parameterLb1EjE16destroy_elementsEv.exit.loopexit.i.i.i, %_ZNK6vectorI9parameterLb1EjE4sizeEv.exit.i.i.i.i
  %21 = phi ptr [ %.pre.i.i.i, %_ZN6vectorI9parameterLb1EjE16destroy_elementsEv.exit.loopexit.i.i.i ], [ %16, %_ZNK6vectorI9parameterLb1EjE4sizeEv.exit.i.i.i.i ]
  %22 = getelementptr inbounds i8, ptr %21, i64 -8
  invoke void @_ZN6memory10deallocateEPv(ptr noundef nonnull %22)
          to label %_ZN9decl_infoD2Ev.exit unwind label %23

23:                                               ; preds = %_ZN6vectorI9parameterLb1EjE16destroy_elementsEv.exit.i.i.i
  %24 = landingpad { ptr, i32 }
          catch ptr null
  %25 = extractvalue { ptr, i32 } %24, 0
  call void @__clang_call_terminate(ptr %25) #25
  unreachable

_ZN9decl_infoD2Ev.exit:                           ; preds = %_ZN11ast_manager7mk_sortERK6symbolRK9sort_info.exit, %_ZN6vectorI9parameterLb1EjE16destroy_elementsEv.exit.i.i.i
  call void @llvm.lifetime.end.p0(i64 40, ptr nonnull %2) #22
  ret ptr %.0.i

26:                                               ; preds = %13, %11
  %27 = landingpad { ptr, i32 }
          cleanup
  call void @_ZN9decl_infoD2Ev(ptr noundef nonnull align 8 dereferenceable(40) %2) #22
  call void @llvm.lifetime.end.p0(i64 40, ptr nonnull %2) #22
  resume { ptr, i32 } %27
}